target datalayout = "e-m:e-p270:32:32-p271:32:32-p272:64:64-i64:64-i128:128-f80:128-n8:16:32:64-S128"
target triple = "x86_64-pc-linux-gnu"

%"struct.metaspace::ChunkManagerStats" = type { [15 x i32], [15 x i64] }

@.str = private unnamed_addr constant [3 x i8] c": \00", align 1
@.str.4 = private unnamed_addr constant [15 x i8] c"%4d, capacity=\00", align 1
@.str.5 = private unnamed_addr constant [13 x i8] c", committed=\00", align 1
@.str.6 = private unnamed_addr constant [7 x i8] c"(none)\00", align 1
@.str.7 = private unnamed_addr constant [18 x i8] c"Total word size: \00", align 1
@.str.8 = private unnamed_addr constant [14 x i8] c", committed: \00", align 1

; Function Attrs: mustprogress nounwind uwtable
define linkonce_odr hidden noundef i64 @_ZN9metaspace10chunklevel19word_size_for_levelEa(i8 noundef signext %0) #1 comdat {
  %2 = alloca i8, align 1
  store i8 %0, ptr %2, align 1
  %3 = load i8, ptr %2, align 1
  %4 = sext i8 %3 to i32
  %5 = zext i32 %4 to i64
  %6 = lshr i64 16777216, %5
  %7 = udiv i64 %6, 8
  ret i64 %7
}

; Function Attrs: mustprogress nounwind uwtable
define hidden void @_ZNK9metaspace17ChunkManagerStats8print_onEP12outputStreamm(ptr noundef nonnull align 8 dereferenceable(184) %0, ptr noundef %1, i64 noundef %2) #1 align 2 {
  %4 = alloca ptr, align 8
  %5 = alloca ptr, align 8
  %6 = alloca i64, align 8
  %7 = alloca i64, align 8
  %8 = alloca i64, align 8
  %9 = alloca i8, align 1
  %10 = alloca i64, align 8
  store ptr %0, ptr %4, align 8
  store ptr %1, ptr %5, align 8
  store i64 %2, ptr %6, align 8
  %11 = load ptr, ptr %4, align 8
  store i64 0, ptr %7, align 8
  store i64 0, ptr %8, align 8
  store i8 0, ptr %9, align 1
  br label %12

12:                                               ; preds = %68, %3
  %13 = load i8, ptr %9, align 1
  %14 = sext i8 %13 to i32
  %15 = icmp sle i32 %14, 14
  br i1 %15, label %16, label %71

16:                                               ; preds = %12
  %17 = load ptr, ptr %5, align 8
  call void @_ZN12outputStream2crEv(ptr noundef nonnull align 8 dereferenceable(56) %17)
  %18 = load ptr, ptr %5, align 8
  %19 = load i8, ptr %9, align 1
  call void @_ZN9metaspace10chunklevel16print_chunk_sizeEP12outputStreama(ptr noundef %18, i8 noundef signext %19)
  %20 = load ptr, ptr %5, align 8
  call void (ptr, ptr, ...) @_ZN12outputStream5printEPKcz(ptr noundef nonnull align 8 dereferenceable(56) %20, ptr noundef @.str)
  %21 = getelementptr inbounds %"struct.metaspace::ChunkManagerStats", ptr %11, i32 0, i32 0
  %22 = load i8, ptr %9, align 1
  %23 = sext i8 %22 to i64
  %24 = getelementptr inbounds [15 x i32], ptr %21, i64 0, i64 %23
  %25 = load i32, ptr %24, align 4
  %26 = icmp sgt i32 %25, 0
  br i1 %26, label %27, label %65

27:                                               ; preds = %16
  %28 = getelementptr inbounds %"struct.metaspace::ChunkManagerStats", ptr %11, i32 0, i32 0
  %29 = load i8, ptr %9, align 1
  %30 = sext i8 %29 to i64
  %31 = getelementptr inbounds [15 x i32], ptr %28, i64 0, i64 %30
  %32 = load i32, ptr %31, align 4
  %33 = sext i32 %32 to i64
  %34 = load i8, ptr %9, align 1
  %35 = call noundef i64 @_ZN9metaspace10chunklevel19word_size_for_levelEa(i8 noundef signext %34)
  %36 = mul i64 %33, %35
  store i64 %36, ptr %10, align 8
  %37 = load ptr, ptr %5, align 8
  %38 = getelementptr inbounds %"struct.metaspace::ChunkManagerStats", ptr %11, i32 0, i32 0
  %39 = load i8, ptr %9, align 1
  %40 = sext i8 %39 to i64
  %41 = getelementptr inbounds [15 x i32], ptr %38, i64 0, i64 %40
  %42 = load i32, ptr %41, align 4
  call void (ptr, ptr, ...) @_ZN12outputStream5printEPKcz(ptr noundef nonnull align 8 dereferenceable(56) %37, ptr noundef @.str.4, i32 noundef %42)
  %43 = load ptr, ptr %5, align 8
  %44 = load i64, ptr %10, align 8
  %45 = load i64, ptr %6, align 8
  call void @_ZN9metaspace18print_scaled_wordsEP12outputStreammmi(ptr noundef %43, i64 noundef %44, i64 noundef %45, i32 noundef -1)
  %46 = load ptr, ptr %5, align 8
  call void (ptr, ptr, ...) @_ZN12outputStream5printEPKcz(ptr noundef nonnull align 8 dereferenceable(56) %46, ptr noundef @.str.5)
  %47 = load ptr, ptr %5, align 8
  %48 = getelementptr inbounds %"struct.metaspace::ChunkManagerStats", ptr %11, i32 0, i32 1
  %49 = load i8, ptr %9, align 1
  %50 = sext i8 %49 to i64
  %51 = getelementptr inbounds [15 x i64], ptr %48, i64 0, i64 %50
  %52 = load i64, ptr %51, align 8
  %53 = load i64, ptr %10, align 8
  %54 = load i64, ptr %6, align 8
  call void @_ZN9metaspace33print_scaled_words_and_percentageEP12outputStreammmmi(ptr noundef %47, i64 noundef %52, i64 noundef %53, i64 noundef %54, i32 noundef -1)
  %55 = load i64, ptr %10, align 8
  %56 = load i64, ptr %7, align 8
  %57 = add i64 %56, %55
  store i64 %57, ptr %7, align 8
  %58 = getelementptr inbounds %"struct.metaspace::ChunkManagerStats", ptr %11, i32 0, i32 1
  %59 = load i8, ptr %9, align 1
  %60 = sext i8 %59 to i64
  %61 = getelementptr inbounds [15 x i64], ptr %58, i64 0, i64 %60
  %62 = load i64, ptr %61, align 8
  %63 = load i64, ptr %8, align 8
  %64 = add i64 %63, %62
  store i64 %64, ptr %8, align 8
  br label %67

65:                                               ; preds = %16
  %66 = load ptr, ptr %5, align 8
  call void (ptr, ptr, ...) @_ZN12outputStream5printEPKcz(ptr noundef nonnull align 8 dereferenceable(56) %66, ptr noundef @.str.6)
  br label %67

67:                                               ; preds = %65, %27
  br label %68

68:                                               ; preds = %67
  %69 = load i8, ptr %9, align 1
  %70 = add i8 %69, 1
  store i8 %70, ptr %9, align 1
  br label %12, !llvm.loop !10

71:                                               ; preds = %12
  %72 = load ptr, ptr %5, align 8
  call void @_ZN12outputStream2crEv(ptr noundef nonnull align 8 dereferenceable(56) %72)
  %73 = load ptr, ptr %5, align 8
  call void (ptr, ptr, ...) @_ZN12outputStream5printEPKcz(ptr noundef nonnull align 8 dereferenceable(56) %73, ptr noundef @.str.7)
  %74 = load ptr, ptr %5, align 8
  %75 = load i64, ptr %7, align 8
  %76 = load i64, ptr %6, align 8
  call void @_ZN9metaspace18print_scaled_wordsEP12outputStreammmi(ptr noundef %74, i64 noundef %75, i64 noundef %76, i32 noundef -1)
  %77 = load ptr, ptr %5, align 8
  call void (ptr, ptr, ...) @_ZN12outputStream5printEPKcz(ptr noundef nonnull align 8 dereferenceable(56) %77, ptr noundef @.str.8)
  %78 = load ptr, ptr %5, align 8
  %79 = load i64, ptr %8, align 8
  %80 = load i64, ptr %7, align 8
  %81 = load i64, ptr %6, align 8
  call void @_ZN9metaspace33print_scaled_words_and_percentageEP12outputStreammmmi(ptr noundef %78, i64 noundef %79, i64 noundef %80, i64 noundef %81, i32 noundef -1)
  %82 = load ptr, ptr %5, align 8
  call void @_ZN12outputStream2crEv(ptr noundef nonnull align 8 dereferenceable(56) %82)
  ret void
}