; Function Attrs: mustprogress nounwind uwtable
define hidden void @_ZNK9metaspace17ChunkManagerStats8print_onEP12outputStreamm(ptr nocapture noundef nonnull readonly align 8 dereferenceable(184) %0, ptr noundef %1, i64 noundef %2) local_unnamed_addr #2 align 2 {
  %4 = getelementptr inbounds i8, ptr %0, i64 64
  br label %5

5:                                                ; preds = %3, %20
  %indvars.iv = phi i64 [ 0, %3 ], [ %indvars.iv.next, %20 ]
  %.041 = phi i64 [ 0, %3 ], [ %.1, %20 ]
  %.03639 = phi i64 [ 0, %3 ], [ %.137, %20 ]
  tail call void @_ZN12outputStream2crEv(ptr noundef nonnull align 8 dereferenceable(56) %1) #6
  %6 = trunc nuw nsw i64 %indvars.iv to i8
  tail call void @_ZN9metaspace10chunklevel16print_chunk_sizeEP12outputStreama(ptr noundef nonnull %1, i8 noundef signext %6) #6
  tail call void (ptr, ptr, ...) @_ZN12outputStream5printEPKcz(ptr noundef nonnull align 8 dereferenceable(56) %1, ptr noundef nonnull @.str) #6
  %7 = getelementptr inbounds [15 x i32], ptr %0, i64 0, i64 %indvars.iv
  %8 = load i32, ptr %7, align 4
  %9 = icmp sgt i32 %8, 0
  br i1 %9, label %10, label %19

10:                                               ; preds = %5
  %11 = zext nneg i32 %8 to i64
  %12 = lshr exact i64 2097152, %indvars.iv
  %13 = mul nuw nsw i64 %12, %11
  tail call void (ptr, ptr, ...) @_ZN12outputStream5printEPKcz(ptr noundef nonnull align 8 dereferenceable(56) %1, ptr noundef nonnull @.str.4, i32 noundef %8) #6
  tail call void @_ZN9metaspace18print_scaled_wordsEP12outputStreammmi(ptr noundef nonnull %1, i64 noundef %13, i64 noundef %2, i32 noundef -1) #6
  tail call void (ptr, ptr, ...) @_ZN12outputStream5printEPKcz(ptr noundef nonnull align 8 dereferenceable(56) %1, ptr noundef nonnull @.str.5) #6
  %14 = getelementptr inbounds [15 x i64], ptr %4, i64 0, i64 %indvars.iv
  %15 = load i64, ptr %14, align 8
  tail call void @_ZN9metaspace33print_scaled_words_and_percentageEP12outputStreammmmi(ptr noundef nonnull %1, i64 noundef %15, i64 noundef %13, i64 noundef %2, i32 noundef -1) #6
  %16 = add i64 %13, %.041
  %17 = load i64, ptr %14, align 8
  %18 = add i64 %17, %.03639
  br label %20

19:                                               ; preds = %5
  tail call void (ptr, ptr, ...) @_ZN12outputStream5printEPKcz(ptr noundef nonnull align 8 dereferenceable(56) %1, ptr noundef nonnull @.str.6) #6
  br label %20

20:                                               ; preds = %10, %19
  %.137 = phi i64 [ %18, %10 ], [ %.03639, %19 ]
  %.1 = phi i64 [ %16, %10 ], [ %.041, %19 ]
  %indvars.iv.next = add nuw nsw i64 %indvars.iv, 1
  %exitcond.not = icmp eq i64 %indvars.iv.next, 15
  br i1 %exitcond.not, label %21, label %5, !llvm.loop !10

21:                                               ; preds = %20
  tail call void @_ZN12outputStream2crEv(ptr noundef nonnull align 8 dereferenceable(56) %1) #6
  tail call void (ptr, ptr, ...) @_ZN12outputStream5printEPKcz(ptr noundef nonnull align 8 dereferenceable(56) %1, ptr noundef nonnull @.str.7) #6
  tail call void @_ZN9metaspace18print_scaled_wordsEP12outputStreammmi(ptr noundef nonnull %1, i64 noundef %.1, i64 noundef %2, i32 noundef -1) #6
  tail call void (ptr, ptr, ...) @_ZN12outputStream5printEPKcz(ptr noundef nonnull align 8 dereferenceable(56) %1, ptr noundef nonnull @.str.8) #6
  tail call void @_ZN9metaspace33print_scaled_words_and_percentageEP12outputStreammmmi(ptr noundef nonnull %1, i64 noundef %.137, i64 noundef %.1, i64 noundef %2, i32 noundef -1) #6
  tail call void @_ZN12outputStream2crEv(ptr noundef nonnull align 8 dereferenceable(56) %1) #6
  ret void
}